target datalayout = "e-m:e-p270:32:32-p271:32:32-p272:64:64-i64:64-i128:128-f80:128-n8:16:32:64-S128"
target triple = "x86_64-pc-linux-gnu"

module asm ".section .qtversion, \22aG\22, @progbits, qt_version_tag, comdat"
module asm ".align 8"
module asm ".quad qt_version_tag@GOT"
module asm ".long ((6<<16)|(2<<8)|(4))"
module asm ".align 8"
module asm ".previous"

%class.QModelIndex = type { i32, i32, i64, ptr }
%class.QFlags = type { i32 }

$_ZNK11QModelIndex7isValidEv = comdat any

$_ZNK11QModelIndex6columnEv = comdat any

$_ZN11QModelIndexC2Ev = comdat any

$_ZNK11QModelIndex7siblingEii = comdat any

$_ZNK11QModelIndex3rowEv = comdat any

@_ZTV14TabnavTreeView = external unnamed_addr constant { [100 x ptr], [10 x ptr] }, align 8

@_ZN14TabnavTreeViewC1EP7QWidget = unnamed_addr alias void (ptr, ptr), ptr @_ZN14TabnavTreeViewC2EP7QWidget

; Function Attrs: mustprogress uwtable
define void @_ZN14TabnavTreeViewC2EP7QWidget(ptr noundef nonnull align 8 dereferenceable(40) %0, ptr noundef %1) unnamed_addr #0 align 2 {
  %3 = alloca ptr, align 8
  %4 = alloca ptr, align 8
  store ptr %0, ptr %3, align 8
  store ptr %1, ptr %4, align 8
  %5 = load ptr, ptr %3, align 8
  %6 = load ptr, ptr %4, align 8
  call void @_ZN9QTreeViewC2EP7QWidget(ptr noundef nonnull align 8 dereferenceable(40) %5, ptr noundef %6)
  store ptr getelementptr inbounds ({ [100 x ptr], [10 x ptr] }, ptr @_ZTV14TabnavTreeView, i32 0, i32 0, i32 2), ptr %5, align 8
  %7 = getelementptr inbounds i8, ptr %5, i64 16
  store ptr getelementptr inbounds ({ [100 x ptr], [10 x ptr] }, ptr @_ZTV14TabnavTreeView, i32 0, i32 1, i32 2), ptr %7, align 8
  ret void
}

declare void @_ZN9QTreeViewC2EP7QWidget(ptr noundef nonnull align 8 dereferenceable(40), ptr noundef) unnamed_addr #1

; Function Attrs: mustprogress uwtable
define void @_ZN14TabnavTreeView10moveCursorEN17QAbstractItemView12CursorActionE6QFlagsIN2Qt16KeyboardModifierEE(ptr dead_on_unwind noalias writable sret(%class.QModelIndex) align 8 %0, ptr noundef nonnull align 8 dereferenceable(40) %1, i32 noundef %2, i32 %3) unnamed_addr #0 align 2 {
  %5 = alloca %class.QFlags, align 4
  %6 = alloca ptr, align 8
  %7 = alloca i32, align 4
  %8 = alloca %class.QModelIndex, align 8
  %9 = alloca %class.QModelIndex, align 8
  %10 = alloca %class.QFlags, align 4
  %11 = getelementptr inbounds %class.QFlags, ptr %5, i32 0, i32 0
  store i32 %3, ptr %11, align 4
  store ptr %1, ptr %6, align 8
  store i32 %2, ptr %7, align 4
  %12 = load ptr, ptr %6, align 8
  call void @_ZNK17QAbstractItemView12currentIndexEv(ptr dead_on_unwind writable sret(%class.QModelIndex) align 8 %8, ptr noundef nonnull align 8 dereferenceable(40) %12)
  %13 = call noundef zeroext i1 @_ZNK11QModelIndex7isValidEv(ptr noundef nonnull align 8 dereferenceable(24) %8) #4
  br i1 %13, label %14, label %43

14:                                               ; preds = %4
  %15 = load i32, ptr %7, align 4
  %16 = icmp eq i32 %15, 8
  br i1 %16, label %17, label %30

17:                                               ; preds = %14
  %18 = call noundef i32 @_ZNK11QModelIndex6columnEv(ptr noundef nonnull align 8 dereferenceable(24) %8) #4
  %19 = call noundef ptr @_ZNK17QAbstractItemView5modelEv(ptr noundef nonnull align 8 dereferenceable(40) %12)
  call void @_ZN11QModelIndexC2Ev(ptr noundef nonnull align 8 dereferenceable(24) %9) #4
  %20 = load ptr, ptr %19, align 8
  %21 = getelementptr inbounds ptr, ptr %20, i64 16
  %22 = load ptr, ptr %21, align 8
  %23 = call noundef i32 %22(ptr noundef nonnull align 8 dereferenceable(16) %19, ptr noundef nonnull align 8 dereferenceable(24) %9)
  %24 = icmp slt i32 %18, %23
  br i1 %24, label %25, label %29

25:                                               ; preds = %17
  %26 = call noundef i32 @_ZNK11QModelIndex3rowEv(ptr noundef nonnull align 8 dereferenceable(24) %8) #4
  %27 = call noundef i32 @_ZNK11QModelIndex6columnEv(ptr noundef nonnull align 8 dereferenceable(24) %8) #4
  %28 = add i32 %27, 1
  call void @_ZNK11QModelIndex7siblingEii(ptr dead_on_unwind writable sret(%class.QModelIndex) align 8 %0, ptr noundef nonnull align 8 dereferenceable(24) %8, i32 noundef %26, i32 noundef %28)
  br label %47

29:                                               ; preds = %17
  call void @llvm.memcpy.p0.p0.i64(ptr align 8 %0, ptr align 8 %8, i64 24, i1 false)
  br label %47

30:                                               ; preds = %14
  %31 = load i32, ptr %7, align 4
  %32 = icmp eq i32 %31, 9
  br i1 %32, label %33, label %41

33:                                               ; preds = %30
  %34 = call noundef i32 @_ZNK11QModelIndex6columnEv(ptr noundef nonnull align 8 dereferenceable(24) %8) #4
  %35 = icmp sgt i32 %34, 0
  br i1 %35, label %36, label %40

36:                                               ; preds = %33
  %37 = call noundef i32 @_ZNK11QModelIndex3rowEv(ptr noundef nonnull align 8 dereferenceable(24) %8) #4
  %38 = call noundef i32 @_ZNK11QModelIndex6columnEv(ptr noundef nonnull align 8 dereferenceable(24) %8) #4
  %39 = sub i32 %38, 1
  call void @_ZNK11QModelIndex7siblingEii(ptr dead_on_unwind writable sret(%class.QModelIndex) align 8 %0, ptr noundef nonnull align 8 dereferenceable(24) %8, i32 noundef %37, i32 noundef %39)
  br label %47

40:                                               ; preds = %33
  call void @llvm.memcpy.p0.p0.i64(ptr align 8 %0, ptr align 8 %8, i64 24, i1 false)
  br label %47

41:                                               ; preds = %30
  br label %42

42:                                               ; preds = %41
  br label %43

43:                                               ; preds = %42, %4
  %44 = load i32, ptr %7, align 4
  call void @llvm.memcpy.p0.p0.i64(ptr align 4 %10, ptr align 4 %5, i64 4, i1 false)
  %45 = getelementptr inbounds %class.QFlags, ptr %10, i32 0, i32 0
  %46 = load i32, ptr %45, align 4
  call void @_ZN9QTreeView10moveCursorEN17QAbstractItemView12CursorActionE6QFlagsIN2Qt16KeyboardModifierEE(ptr dead_on_unwind writable sret(%class.QModelIndex) align 8 %0, ptr noundef nonnull align 8 dereferenceable(40) %12, i32 noundef %44, i32 %46)
  br label %47

47:                                               ; preds = %43, %40, %36, %29, %25
  ret void
}

declare void @_ZNK17QAbstractItemView12currentIndexEv(ptr dead_on_unwind writable sret(%class.QModelIndex) align 8, ptr noundef nonnull align 8 dereferenceable(40)) #1

; Function Attrs: mustprogress nounwind uwtable
define linkonce_odr noundef zeroext i1 @_ZNK11QModelIndex7isValidEv(ptr noundef nonnull align 8 dereferenceable(24) %0) #2 comdat align 2 {
  %2 = alloca ptr, align 8
  store ptr %0, ptr %2, align 8
  %3 = load ptr, ptr %2, align 8
  %4 = getelementptr inbounds %class.QModelIndex, ptr %3, i32 0, i32 0
  %5 = load i32, ptr %4, align 8
  %6 = icmp sge i32 %5, 0
  br i1 %6, label %7, label %15

7:                                                ; preds = %1
  %8 = getelementptr inbounds %class.QModelIndex, ptr %3, i32 0, i32 1
  %9 = load i32, ptr %8, align 4
  %10 = icmp sge i32 %9, 0
  br i1 %10, label %11, label %15

11:                                               ; preds = %7
  %12 = getelementptr inbounds %class.QModelIndex, ptr %3, i32 0, i32 3
  %13 = load ptr, ptr %12, align 8
  %14 = icmp ne ptr %13, null
  br label %15

15:                                               ; preds = %11, %7, %1
  %16 = phi i1 [ false, %7 ], [ false, %1 ], [ %14, %11 ]
  ret i1 %16
}

; Function Attrs: mustprogress nounwind uwtable
define linkonce_odr noundef i32 @_ZNK11QModelIndex6columnEv(ptr noundef nonnull align 8 dereferenceable(24) %0) #2 comdat align 2 {
  %2 = alloca ptr, align 8
  store ptr %0, ptr %2, align 8
  %3 = load ptr, ptr %2, align 8
  %4 = getelementptr inbounds %class.QModelIndex, ptr %3, i32 0, i32 1
  %5 = load i32, ptr %4, align 4
  ret i32 %5
}

declare noundef ptr @_ZNK17QAbstractItemView5modelEv(ptr noundef nonnull align 8 dereferenceable(40)) #1

; Function Attrs: mustprogress nounwind uwtable
define linkonce_odr void @_ZN11QModelIndexC2Ev(ptr noundef nonnull align 8 dereferenceable(24) %0) unnamed_addr #2 comdat align 2 {
  %2 = alloca ptr, align 8
  store ptr %0, ptr %2, align 8
  %3 = load ptr, ptr %2, align 8
  %4 = getelementptr inbounds %class.QModelIndex, ptr %3, i32 0, i32 0
  store i32 -1, ptr %4, align 8
  %5 = getelementptr inbounds %class.QModelIndex, ptr %3, i32 0, i32 1
  store i32 -1, ptr %5, align 4
  %6 = getelementptr inbounds %class.QModelIndex, ptr %3, i32 0, i32 2
  store i64 0, ptr %6, align 8
  %7 = getelementptr inbounds %class.QModelIndex, ptr %3, i32 0, i32 3
  store ptr null, ptr %7, align 8
  ret void
}

; Function Attrs: mustprogress uwtable
define linkonce_odr void @_ZNK11QModelIndex7siblingEii(ptr dead_on_unwind noalias writable sret(%class.QModelIndex) align 8 %0, ptr noundef nonnull align 8 dereferenceable(24) %1, i32 noundef %2, i32 noundef %3) #0 comdat align 2 {
  %5 = alloca ptr, align 8
  %6 = alloca i32, align 4
  %7 = alloca i32, align 4
  store ptr %1, ptr %5, align 8
  store i32 %2, ptr %6, align 4
  store i32 %3, ptr %7, align 4
  %8 = load ptr, ptr %5, align 8
  %9 = getelementptr inbounds %class.QModelIndex, ptr %8, i32 0, i32 3
  %10 = load ptr, ptr %9, align 8
  %11 = icmp ne ptr %10, null
  br i1 %11, label %12, label %32

12:                                               ; preds = %4
  %13 = getelementptr inbounds %class.QModelIndex, ptr %8, i32 0, i32 0
  %14 = load i32, ptr %13, align 8
  %15 = load i32, ptr %6, align 4
  %16 = icmp eq i32 %14, %15
  br i1 %16, label %17, label %23

17:                                               ; preds = %12
  %18 = getelementptr inbounds %class.QModelIndex, ptr %8, i32 0, i32 1
  %19 = load i32, ptr %18, align 4
  %20 = load i32, ptr %7, align 4
  %21 = icmp eq i32 %19, %20
  br i1 %21, label %22, label %23

22:                                               ; preds = %17
  call void @llvm.memcpy.p0.p0.i64(ptr align 8 %0, ptr align 8 %8, i64 24, i1 false)
  br label %31

23:                                               ; preds = %17, %12
  %24 = getelementptr inbounds %class.QModelIndex, ptr %8, i32 0, i32 3
  %25 = load ptr, ptr %24, align 8
  %26 = load i32, ptr %6, align 4
  %27 = load i32, ptr %7, align 4
  %28 = load ptr, ptr %25, align 8
  %29 = getelementptr inbounds ptr, ptr %28, i64 14
  %30 = load ptr, ptr %29, align 8
  call void %30(ptr dead_on_unwind writable sret(%class.QModelIndex) align 8 %0, ptr noundef nonnull align 8 dereferenceable(16) %25, i32 noundef %26, i32 noundef %27, ptr noundef nonnull align 8 dereferenceable(24) %8)
  br label %31

31:                                               ; preds = %23, %22
  br label %33

32:                                               ; preds = %4
  call void @_ZN11QModelIndexC2Ev(ptr noundef nonnull align 8 dereferenceable(24) %0) #4
  br label %33

33:                                               ; preds = %32, %31
  ret void
}

; Function Attrs: mustprogress nounwind uwtable
define linkonce_odr noundef i32 @_ZNK11QModelIndex3rowEv(ptr noundef nonnull align 8 dereferenceable(24) %0) #2 comdat align 2 {
  %2 = alloca ptr, align 8
  store ptr %0, ptr %2, align 8
  %3 = load ptr, ptr %2, align 8
  %4 = getelementptr inbounds %class.QModelIndex, ptr %3, i32 0, i32 0
  %5 = load i32, ptr %4, align 8
  ret i32 %5
}

; Function Attrs: nocallback nofree nounwind willreturn memory(argmem: readwrite)
declare void @llvm.memcpy.p0.p0.i64(ptr noalias nocapture writeonly, ptr noalias nocapture readonly, i64, i1 immarg) #3

declare void @_ZN9QTreeView10moveCursorEN17QAbstractItemView12CursorActionE6QFlagsIN2Qt16KeyboardModifierEE(ptr dead_on_unwind writable sret(%class.QModelIndex) align 8, ptr noundef nonnull align 8 dereferenceable(40), i32 noundef, i32) unnamed_addr #1

; Function Attrs: mustprogress uwtable
define void @_ZN14TabnavTreeView14currentChangedERK11QModelIndexS2_(ptr noundef nonnull align 8 dereferenceable(40) %0, ptr noundef nonnull align 8 dereferenceable(24) %1, ptr noundef nonnull align 8 dereferenceable(24) %2) unnamed_addr #0 align 2 {
  %4 = alloca ptr, align 8
  %5 = alloca ptr, align 8
  %6 = alloca ptr, align 8
  store ptr %0, ptr %4, align 8
  store ptr %1, ptr %5, align 8
  store ptr %2, ptr %6, align 8
  %7 = load ptr, ptr %4, align 8
  %8 = load ptr, ptr %5, align 8
  %9 = load ptr, ptr %6, align 8
  call void @_ZN9QTreeView14currentChangedERK11QModelIndexS2_(ptr noundef nonnull align 8 dereferenceable(40) %7, ptr noundef nonnull align 8 dereferenceable(24) %8, ptr noundef nonnull align 8 dereferenceable(24) %9)
  %10 = load ptr, ptr %5, align 8
  %11 = load ptr, ptr %6, align 8
  call void @_ZN14TabnavTreeView18currentItemChangedERK11QModelIndexS2_(ptr noundef nonnull align 8 dereferenceable(40) %7, ptr noundef nonnull align 8 dereferenceable(24) %10, ptr noundef nonnull align 8 dereferenceable(24) %11)
  ret void
}

declare void @_ZN9QTreeView14currentChangedERK11QModelIndexS2_(ptr noundef nonnull align 8 dereferenceable(40), ptr noundef nonnull align 8 dereferenceable(24), ptr noundef nonnull align 8 dereferenceable(24)) unnamed_addr #1

declare void @_ZN14TabnavTreeView18currentItemChangedERK11QModelIndexS2_(ptr noundef nonnull align 8 dereferenceable(40), ptr noundef nonnull align 8 dereferenceable(24), ptr noundef nonnull align 8 dereferenceable(24)) #1


!llvm.module.flags = !{!0, !1, !2, !3}

!0 = !{i32 1, !"wchar_size", i32 4}
!1 = !{i32 8, !"PIC Level", i32 2}
!2 = !{i32 7, !"uwtable", i32 2}
!3 = !{i32 7, !"frame-pointer", i32 2}
